target datalayout = "e-m:e-p270:32:32-p271:32:32-p272:64:64-i64:64-i128:128-f80:128-n8:16:32:64-S128"
target triple = "x86_64-unknown-linux-gnu"

%class.b3CpuRigidBodyPipeline = type { ptr, ptr }
%struct.b3CpuRigidBodyPipelineInternalData = type { %class.b3AlignedObjectArray, %class.b3AlignedObjectArray.0, %class.b3AlignedObjectArray.4, ptr, ptr, %struct.b3Config }
%class.b3AlignedObjectArray = type <{ %class.b3AlignedAllocator, [3 x i8], i32, i32, [4 x i8], ptr, i8, [7 x i8] }>
%class.b3AlignedAllocator = type { i8 }
%class.b3AlignedObjectArray.0 = type <{ %class.b3AlignedAllocator.1, [3 x i8], i32, i32, [4 x i8], ptr, i8, [7 x i8] }>
%class.b3AlignedAllocator.1 = type { i8 }
%class.b3AlignedObjectArray.4 = type <{ %class.b3AlignedAllocator.5, [3 x i8], i32, i32, [4 x i8], ptr, i8, [7 x i8] }>
%class.b3AlignedAllocator.5 = type { i8 }
%struct.b3Config = type { i32, i32, i32, i32, i32, i32, i32, i32, i32, i32, i32, i32 }
%class.b3Vector3 = type { %union.anon }
%union.anon = type { [4 x float] }
%class.b3Quaternion = type { %class.b3QuadWord }
%class.b3QuadWord = type { %union.anon.8 }
%union.anon.8 = type { [4 x float] }
%struct.b3RigidBodyData = type { %class.b3Vector3, %class.b3Quaternion, %class.b3Vector3, %class.b3Vector3, i32, float, float, float }

; Function Attrs: mustprogress nounwind uwtable
define linkonce_odr dso_local noundef nonnull align 16 dereferenceable(80) ptr @_ZN20b3AlignedObjectArrayI15b3RigidBodyDataEixEi(ptr noundef nonnull align 8 dereferenceable(25) %this, i32 noundef %n) #4 comdat align 2 {
entry:
  %this.addr = alloca ptr, align 8
  %n.addr = alloca i32, align 4
  store ptr %this, ptr %this.addr, align 8
  store i32 %n, ptr %n.addr, align 4
  %this1 = load ptr, ptr %this.addr, align 8
  %m_data = getelementptr inbounds %class.b3AlignedObjectArray, ptr %this1, i32 0, i32 5
  %0 = load ptr, ptr %m_data, align 8
  %1 = load i32, ptr %n.addr, align 4
  %idxprom = sext i32 %1 to i64
  %arrayidx = getelementptr inbounds %struct.b3RigidBodyData, ptr %0, i64 %idxprom
  ret ptr %arrayidx
}

; Function Attrs: mustprogress nounwind uwtable
define linkonce_odr dso_local noundef i32 @_ZNK20b3AlignedObjectArrayI15b3RigidBodyDataE4sizeEv(ptr noundef nonnull align 8 dereferenceable(25) %this) #4 comdat align 2 {
entry:
  %this.addr = alloca ptr, align 8
  store ptr %this, ptr %this.addr, align 8
  %this1 = load ptr, ptr %this.addr, align 8
  %m_size = getelementptr inbounds %class.b3AlignedObjectArray, ptr %this1, i32 0, i32 2
  %0 = load i32, ptr %m_size, align 4
  ret i32 %0
}

; Function Attrs: mustprogress uwtable
define dso_local noundef ptr @_ZNK22b3CpuRigidBodyPipeline13getBodyBufferEv(ptr noundef nonnull align 8 dereferenceable(16) %this) #0 align 2 {
entry:
  %this.addr = alloca ptr, align 8
  store ptr %this, ptr %this.addr, align 8
  %this1 = load ptr, ptr %this.addr, align 8
  %m_data = getelementptr inbounds %class.b3CpuRigidBodyPipeline, ptr %this1, i32 0, i32 1
  %0 = load ptr, ptr %m_data, align 8
  %m_rigidBodies = getelementptr inbounds %struct.b3CpuRigidBodyPipelineInternalData, ptr %0, i32 0, i32 0
  %call = call noundef i32 @_ZNK20b3AlignedObjectArrayI15b3RigidBodyDataE4sizeEv(ptr noundef nonnull align 8 dereferenceable(25) %m_rigidBodies)
  %tobool = icmp ne i32 %call, 0
  br i1 %tobool, label %cond.true, label %cond.false

cond.true:                                        ; preds = %entry
  %m_data2 = getelementptr inbounds %class.b3CpuRigidBodyPipeline, ptr %this1, i32 0, i32 1
  %1 = load ptr, ptr %m_data2, align 8
  %m_rigidBodies3 = getelementptr inbounds %struct.b3CpuRigidBodyPipelineInternalData, ptr %1, i32 0, i32 0
  %call4 = call noundef nonnull align 16 dereferenceable(80) ptr @_ZN20b3AlignedObjectArrayI15b3RigidBodyDataEixEi(ptr noundef nonnull align 8 dereferenceable(25) %m_rigidBodies3, i32 noundef 0)
  br label %cond.end

cond.false:                                       ; preds = %entry
  br label %cond.end

cond.end:                                         ; preds = %cond.false, %cond.true
  %cond = phi ptr [ %call4, %cond.true ], [ null, %cond.false ]
  ret ptr %cond
}