; Function Attrs: mustprogress nofree norecurse nosync nounwind willreturn memory(read, inaccessiblemem: none) uwtable
define dso_local noundef ptr @_ZNK22b3CpuRigidBodyPipeline13getBodyBufferEv(ptr nocapture noundef nonnull readonly align 8 dereferenceable(16) %this) local_unnamed_addr #5 align 2 {
entry:
  %m_data = getelementptr inbounds i8, ptr %this, i64 8
  %0 = load ptr, ptr %m_data, align 8
  %m_size.i = getelementptr inbounds i8, ptr %0, i64 4
  %1 = load i32, ptr %m_size.i, align 4
  %tobool.not = icmp eq i32 %1, 0
  br i1 %tobool.not, label %cond.end, label %cond.true

cond.true:                                        ; preds = %entry
  %m_data.i = getelementptr inbounds i8, ptr %0, i64 16
  %2 = load ptr, ptr %m_data.i, align 8
  br label %cond.end

cond.end:                                         ; preds = %entry, %cond.true
  %cond = phi ptr [ %2, %cond.true ], [ null, %entry ]
  ret ptr %cond
}